Crasm 1.11:                                                   page  1

                         1  ;    Routines to allow direct USB-to-LCD-transfe
     rs in an ST220x-device
                         2  ;    Copyright (C) 2008 Jeroen Domburg <jeroen@s
     pritesmods.com>
                         3  ;
                         4  ;    This program is free software: you can redi
     stribute it and/or modify
                         5  ;    it under the terms of the GNU General Publi
     c License as published by
                         6  ;    the Free Software Foundation, either versio
     n 3 of the License, or
                         7  ;    (at your option) any later version.
                         8  ;
                         9  ;    This program is distributed in the hope tha
     t it will be useful,
                        10  ;    but WITHOUT ANY WARRANTY; without even the 
     implied warranty of
                        11  ;    MERCHANTABILITY or FITNESS FOR A PARTICULAR
     PURPOSE.  See the
                        12  ;    GNU General Public License for more details
     .
                        13  ;
                        14  ;    You should have received a copy of the GNU 
     General Public License
                        15  ;    along with this program.  If not, see <http
     ://www.gnu.org/licenses/>.
                        16  
                        17  
                        18      CPU 65c02
                        19      OUTPUT HEX
                        20      INCLUDE spec
  7D20                  21      * = EMPTY_AT+$4000
                        22  
                        23  ;The routine in the existing firmware is patched
 to jump here if the
                        24  ;routine that discerns the address that's writte
 n to fails.
                        25  ;This way, we can splice our own check inthere t
 oo.
                        26  
                        27  ;Watch out & be carefull with bloating this: one
 of the devices (the Coby)
                        28  ;only has 230 bytes free to cram this in!
                        29  
                        30  ;check magic write to address 4400
7D20 AD8803             31  start   lda CMP_VAR1
7D23 C922               32          cmp #$22
7D25 D009               33          bne nomagic
7D27 AD8903             34          lda CMP_VAR2
7D2A C900               35          cmp #$00
7D2C D002               36          bne nomagic
7D2E 8007               37          bra gotcha
                        38  ;Nope? Do what the original routine did & bail o
 ut.
7D30 A9FF               39  nomagic lda #$ff
7D32 A2FF               40          ldx #$ff
7D34 4C0571             41          jmp PATCH_AT+$4004
                        42  
                        43  ;ack usb wossname
7D37 A904               44  gotcha  lda #$04
7D39 8573               45          sta $73
                        46  


Crasm 1.11:                                                   page  2

                        47  ;Push registers 
7D3B A535               48          lda $35
7D3D 48                 49          pha
                        50  
                        51  ;select lcd
7D3E A903               52          lda #$3
7D40 8535               53          sta $35
                        54  
7D42 9C7A03             55          stz LEN0
                        56  ;wait for usb packet
7D45 A573               57  waitpacket lda $73
7D47 2904               58          and #$4
7D49 F0FA               59          beq waitpacket
                        60  
                        61  ;fetch command
7D4B AD0002             62          lda $200
7D4E C900               63          cmp #$0
7D50 F047               64          beq copy2fb
7D52 C901               65          cmp #$1
7D54 F01A               66          beq setaddr
7D56 C902               67          cmp #$2
7D58 F006               68          beq blon
7D5A C903               69          cmp #$3
7D5C F00A               70          beq bloff
7D5E 804F               71          bra packetend
                        72  
                        73  ;Command 2: turn backlight on
7D60 A503               74  blon    lda $03
>>>> 75 WARNING: External parenthesis ignored
7D62 29FB               75          and #($ff-$04)
7D64 8503               76          sta $03
7D66 8047               77          bra packetend
                        78  
                        79  ;Command 3: turn backlight off
7D68 A503               80  bloff   lda $03
7D6A 0904               81          ora #$04
7D6C 8503               82          sta $03
7D6E 803F               83          bra packetend
                        84  
                        85  
                        86  ;Command 1: set window to write data to
                        87  IF CTRTYPE=1 ;UC1697V
                         C  ;set visible window
                         C  ;Non-working as of yet :/
                         C  setaddr lda #$F6 ;endx
                         C          sta $8000
                         C          lda $202
                         C          sta $8000
                         C  
                         C          lda #$F7 ;endy
                         C          sta $8000
                         C          lda $204
                         C          sta $8000
                         C  
                         C          lda #$F4 ;startx
                         C          sta $8000
                         C          lda $201
                         C          sta $8000
                         C  
                         C          lda #$F5 ;starty
                         C          sta $8000
                         C          lda $203


Crasm 1.11:                                                   page  3

                         C          sta $8000
                         C  
                         C  ;reset addr to (0,0)
                         C  ;       lda #$00
                         C  ;       sta $8000
                         C  ;       lda #$10
                         C  ;       sta $8000
                         C  ;       lda #$60
                         C  ;       sta $8000
                         C  ;       lda #$70
                         C  ;       sta $8000
                         C  
                         C          bra packetend
                       121  ENDC
                       122  IF CTRTYPE==0 ;PCF8833
                       123  ;set addr
7D70 A92A              124  setaddr lda #$2A
7D72 8D0080            125          sta $8000
7D75 AD0102            126          lda $201
7D78 8D00C0            127          sta $c000
7D7B AD0202            128          lda $202
7D7E 8D00C0            129          sta $c000
                       130  
7D81 A92B              131          lda #$2B
7D83 8D0080            132          sta $8000
7D86 AD0302            133          lda $203
7D89 8D00C0            134          sta $c000
7D8C AD0402            135          lda $204
7D8F 8D00C0            136          sta $c000
                       137  
7D92 A92C              138          lda #$2c
7D94 8D0080            139          sta $8000
                       140  
7D97 8016              141          bra packetend
                       142  ENDC
                       143  
                       144  
                       145  ;Command 0: dma data to lcd.
                       146          ;set dma regs
                       147          ;copy from ($202)
7D99 A902              148  copy2fb lda #$2
7D9B 8558              149          sta $58
7D9D 8559              150          sta $59
                       151          ;from bank (=0)
7D9F 645E              152          stz $5e
7DA1 645F              153          stz $5f
                       154          ;to (0xc0xx)
7DA3 A9C0              155          lda #$C0
7DA5 855B              156          sta $5b
                       157  ;       stz $5a ;unnecessary
                       158          ;count
7DA7 645D              159          stz $5D
7DA9 AD0102            160          lda $201
                       161  ;       dea ;dma sends this +1 over; compensate
                       162          ;^^ stupid crasm doesn't recognize this 
         :X
7DAC 3A                163          db $3a ;=hardcoded 'dea'
7DAD 855C              164          sta $5C
                       165  
                       166  
                       167  ;subtract 0x40 from 37A:37D.
                       168  ;Damn, this is way easier on an ARM :P


Crasm 1.11:                                                   page  4

7DAF 38                169  packetend sec
7DB0 AD7A03            170          lda LEN0
7DB3 E940              171          sbc #$40
7DB5 8D7A03            172          sta LEN0
7DB8 AD7B03            173          lda LEN1
7DBB E900              174          sbc #$0
7DBD 8D7B03            175          sta LEN1
7DC0 AD7C03            176          lda LEN2
7DC3 E900              177          sbc #$0
7DC5 8D7C03            178          sta LEN2
                       179  ;never gonna do such large xfers anyway
                       180  ;       lda LEN3
                       181  ;       sbc #$0
                       182  ;       sta LEN3
                       183  
                       184  ;ack
7DC8 A904              185          lda #$04
7DCA 8573              186          sta $73
                       187  
                       188  ;check for done-ness
                       189  ;       lda LEN3
7DCC AD7C03            190          lda LEN2
7DCF 0D7B03            191          ora LEN1
7DD2 0D7A03            192          ora LEN0
7DD5 F003              193          beq nowaitpacket
7DD7 4C457D            194          jmp waitpacket
                       195  
                       196  ;restore registers
7DDA 68                197  nowaitpacket    pla
7DDB 8535              198          sta $35
                       199  
                       200  
                       201  ;send ack
7DDD A900              202          lda #$00
7DDF 20C96F            203          jsr SEND_CSW+0x4000
                       204  
                       205  ;and return as a winner :)
7DE2 A9FF              206          lda #$ff
7DE4 A2FF              207          ldx #$ff
7DE6 4C0571            208          jmp PATCH_AT+$4004
                       209  
                       210  
7DE9 4834434B          211          db "H","4","C","K"
7DED 01                212          db 1 ;version of info block
7DEE 80                213          db CONF_XRES
7DEF 80                214          db CONF_YRES
7DF0 18                215          db CONF_BPP
7DF1 00                216          db CONF_PROTO
7DF2 04                217          db OFFX
7DF3 04                218          db OFFY
                       219  

ERRORS:       0
WARNINGS:     0

Successful assembly...
 Last address     7df3 (32243)
 Code length       1a8 (424)






Crasm 1.11:                                                   page  5

^7D68   Abs BLOFF                                            
^7D60   Abs BLON                                             
 0388   Abs CMP_VAR1                                         
 0389   Abs CMP_VAR2                                         
 0018   Abs CONF_BPP                                         
 0000   Abs CONF_PROTO                                       
 0080   Abs CONF_XRES                                        
 0080   Abs CONF_YRES                                        
^7D99   Abs COPY2FB                                          
 0000   Abs CTRTYPE                                          
 3D20   Abs EMPTY_AT                                         
^7D37   Abs GOTCHA                                           
 037A   Abs LEN0                                             
 037B   Abs LEN1                                             
 037C   Abs LEN2                                             
?037D   Abs LEN3                                             
^7D30   Abs NOMAGIC                                          
^7DDA   Abs NOWAITPACKET                                     
 0004   Abs OFFX                                             
 0004   Abs OFFY                                             
^7DAF   Abs PACKETEND                                        
 3101   Abs PATCH_AT                                         
 2FC9   Abs SEND_CSW                                         
^7D70   Abs SETADDR                                          
?7D20   Abs START                                            
 7D45   Abs WAITPACKET                                       






































